target datalayout = "e-m:e-p270:32:32-p271:32:32-p272:64:64-i64:64-i128:128-f80:128-n8:16:32:64-S128"
target triple = "x86_64-pc-linux-gnu"

%struct.ARKodeMemRec = type { ptr, double, ptr, i32, i32, double, double, ptr, i32, double, ptr, i32, i32, ptr, ptr, i32, ptr, ptr, i32, ptr, ptr, ptr, ptr, ptr, ptr, ptr, ptr, ptr, ptr, ptr, ptr, ptr, ptr, ptr, i32, ptr, ptr, i32, ptr, i32, ptr, ptr, ptr, ptr, ptr, ptr, ptr, ptr, ptr, ptr, ptr, ptr, ptr, ptr, ptr, ptr, ptr, ptr, ptr, ptr, ptr, ptr, ptr, ptr, ptr, ptr, i32, ptr, ptr, ptr, ptr, ptr, ptr, ptr, i32, ptr, ptr, ptr, i32, ptr, ptr, ptr, ptr, ptr, ptr, ptr, i32, i32, i32, i32, double, double, double, double, double, double, double, double, double, double, i32, ptr, i64, i32, i32, i32, i32, i64, i64, i32, i64, i64, i64, i64, i64, i64, i64, double, double, double, double, double, i32, double, double, i32, i32, i32, i32, i32, i32, i32, i32, ptr, i32, ptr, ptr, ptr, ptr, i32, i32, i32 }
%struct.ARKodeLSRKStepMemRec = type { ptr, ptr, i32, i32, i32, i32, i64, i64, i32, i32, i64, i64, double, double, double, double, double, double, i64, i32, i32, i32, i32, ptr, ptr, i32 }

@.str = private unnamed_addr constant [124 x i8] c"generated/home/dtcxzyw/WorkSpace/Projects/compilers/llvm-opt-benchmark/bench/sundials/sundials/src/arkode/arkode_lsrkstep.c\00", align 1
@__func__.lsrkStep_ComputeNewDomEig = private unnamed_addr constant [26 x i8] c"lsrkStep_ComputeNewDomEig\00", align 1
@.str.40 = private unnamed_addr constant [43 x i8] c"Unable to estimate the dominant eigenvalue\00", align 1
@.str.41 = private unnamed_addr constant [30 x i8] c"lambdaR*h must be nonpositive\00", align 1
@.str.42 = private unnamed_addr constant [34 x i8] c"DomEig cannot be purely imaginary\00", align 1

; Function Attrs: nounwind uwtable
define i32 @lsrkStep_ComputeNewDomEig(ptr noundef %0, ptr noundef %1) #0 {
  %3 = alloca i32, align 4
  %4 = alloca ptr, align 8
  %5 = alloca ptr, align 8
  %6 = alloca i32, align 4
  %7 = alloca i32, align 4
  store ptr %0, ptr %4, align 8, !tbaa !13
  store ptr %1, ptr %5, align 8, !tbaa !17
  call void @llvm.lifetime.start.p0(i64 4, ptr %6) #6
  store i32 0, ptr %6, align 4, !tbaa !15
  %8 = load ptr, ptr %5, align 8, !tbaa !17
  %9 = getelementptr inbounds nuw %struct.ARKodeLSRKStepMemRec, ptr %8, i32 0, i32 1
  %10 = load ptr, ptr %9, align 8, !tbaa !41
  %11 = load ptr, ptr %4, align 8, !tbaa !13
  %12 = getelementptr inbounds nuw %struct.ARKodeMemRec, ptr %11, i32 0, i32 118
  %13 = load double, ptr %12, align 8, !tbaa !93
  %14 = load ptr, ptr %4, align 8, !tbaa !13
  %15 = getelementptr inbounds nuw %struct.ARKodeMemRec, ptr %14, i32 0, i32 75
  %16 = load ptr, ptr %15, align 8, !tbaa !99
  %17 = load ptr, ptr %4, align 8, !tbaa !13
  %18 = getelementptr inbounds nuw %struct.ARKodeMemRec, ptr %17, i32 0, i32 77
  %19 = load ptr, ptr %18, align 8, !tbaa !76
  %20 = load ptr, ptr %5, align 8, !tbaa !17
  %21 = getelementptr inbounds nuw %struct.ARKodeLSRKStepMemRec, ptr %20, i32 0, i32 12
  %22 = load ptr, ptr %5, align 8, !tbaa !17
  %23 = getelementptr inbounds nuw %struct.ARKodeLSRKStepMemRec, ptr %22, i32 0, i32 13
  %24 = load ptr, ptr %4, align 8, !tbaa !13
  %25 = getelementptr inbounds nuw %struct.ARKodeMemRec, ptr %24, i32 0, i32 2
  %26 = load ptr, ptr %25, align 8, !tbaa !75
  %27 = load ptr, ptr %4, align 8, !tbaa !13
  %28 = getelementptr inbounds nuw %struct.ARKodeMemRec, ptr %27, i32 0, i32 79
  %29 = load ptr, ptr %28, align 8, !tbaa !95
  %30 = load ptr, ptr %4, align 8, !tbaa !13
  %31 = getelementptr inbounds nuw %struct.ARKodeMemRec, ptr %30, i32 0, i32 80
  %32 = load ptr, ptr %31, align 8, !tbaa !96
  %33 = load ptr, ptr %4, align 8, !tbaa !13
  %34 = getelementptr inbounds nuw %struct.ARKodeMemRec, ptr %33, i32 0, i32 81
  %35 = load ptr, ptr %34, align 8, !tbaa !116
  %36 = call i32 %10(double noundef %13, ptr noundef %16, ptr noundef %19, ptr noundef %21, ptr noundef %23, ptr noundef %26, ptr noundef %29, ptr noundef %32, ptr noundef %35)
  store i32 %36, ptr %6, align 4, !tbaa !15
  %37 = load ptr, ptr %5, align 8, !tbaa !17
  %38 = getelementptr inbounds nuw %struct.ARKodeLSRKStepMemRec, ptr %37, i32 0, i32 7
  %39 = load i64, ptr %38, align 8, !tbaa !44
  %40 = add nsw i64 %39, 1
  store i64 %40, ptr %38, align 8, !tbaa !44
  %41 = load i32, ptr %6, align 4, !tbaa !15
  %42 = icmp ne i32 %41, 0
  br i1 %42, label %43, label %45

43:                                               ; preds = %2
  %44 = load ptr, ptr %4, align 8, !tbaa !13
  call void (ptr, i32, i32, ptr, ptr, ptr, ...) @arkProcessError(ptr noundef %44, i32 noundef -49, i32 noundef 2229, ptr noundef @__func__.lsrkStep_ComputeNewDomEig, ptr noundef @.str, ptr noundef @.str.40)
  store i32 -49, ptr %3, align 4
  store i32 1, ptr %7, align 4
  br label %167

45:                                               ; preds = %2
  %46 = load ptr, ptr %5, align 8, !tbaa !17
  %47 = getelementptr inbounds nuw %struct.ARKodeLSRKStepMemRec, ptr %46, i32 0, i32 12
  %48 = load double, ptr %47, align 8, !tbaa !107
  %49 = load ptr, ptr %4, align 8, !tbaa !13
  %50 = getelementptr inbounds nuw %struct.ARKodeMemRec, ptr %49, i32 0, i32 92
  %51 = load double, ptr %50, align 8, !tbaa !81
  %52 = fmul double %48, %51
  %53 = fcmp ogt double %52, 0.000000e+00
  br i1 %53, label %54, label %55

54:                                               ; preds = %45
  call void (ptr, i32, i32, ptr, ptr, ptr, ...) @arkProcessError(ptr noundef null, i32 noundef -49, i32 noundef 2236, ptr noundef @__func__.lsrkStep_ComputeNewDomEig, ptr noundef @.str, ptr noundef @.str.41)
  store i32 -49, ptr %3, align 4
  store i32 1, ptr %7, align 4
  br label %167

55:                                               ; preds = %45
  %56 = load ptr, ptr %5, align 8, !tbaa !17
  %57 = getelementptr inbounds nuw %struct.ARKodeLSRKStepMemRec, ptr %56, i32 0, i32 12
  %58 = load double, ptr %57, align 8, !tbaa !107
  %59 = fcmp oeq double %58, 0.000000e+00
  br i1 %59, label %60, label %67

60:                                               ; preds = %55
  %61 = load ptr, ptr %5, align 8, !tbaa !17
  %62 = getelementptr inbounds nuw %struct.ARKodeLSRKStepMemRec, ptr %61, i32 0, i32 13
  %63 = load double, ptr %62, align 8, !tbaa !108
  %64 = call double @llvm.fabs.f64(double %63)
  %65 = fcmp ogt double %64, 0.000000e+00
  br i1 %65, label %66, label %67

66:                                               ; preds = %60
  call void (ptr, i32, i32, ptr, ptr, ptr, ...) @arkProcessError(ptr noundef null, i32 noundef -49, i32 noundef 2243, ptr noundef @__func__.lsrkStep_ComputeNewDomEig, ptr noundef @.str, ptr noundef @.str.42)
  store i32 -49, ptr %3, align 4
  store i32 1, ptr %7, align 4
  br label %167

67:                                               ; preds = %60, %55
  br label %68

68:                                               ; preds = %67
  %69 = load ptr, ptr %5, align 8, !tbaa !17
  %70 = getelementptr inbounds nuw %struct.ARKodeLSRKStepMemRec, ptr %69, i32 0, i32 17
  %71 = load double, ptr %70, align 8, !tbaa !109
  %72 = load ptr, ptr %5, align 8, !tbaa !17
  %73 = getelementptr inbounds nuw %struct.ARKodeLSRKStepMemRec, ptr %72, i32 0, i32 12
  %74 = load double, ptr %73, align 8, !tbaa !107
  %75 = fmul double %74, %71
  store double %75, ptr %73, align 8, !tbaa !107
  %76 = load ptr, ptr %5, align 8, !tbaa !17
  %77 = getelementptr inbounds nuw %struct.ARKodeLSRKStepMemRec, ptr %76, i32 0, i32 17
  %78 = load double, ptr %77, align 8, !tbaa !109
  %79 = load ptr, ptr %5, align 8, !tbaa !17
  %80 = getelementptr inbounds nuw %struct.ARKodeLSRKStepMemRec, ptr %79, i32 0, i32 13
  %81 = load double, ptr %80, align 8, !tbaa !108
  %82 = fmul double %81, %78
  store double %82, ptr %80, align 8, !tbaa !108
  %83 = load ptr, ptr %5, align 8, !tbaa !17
  %84 = getelementptr inbounds nuw %struct.ARKodeLSRKStepMemRec, ptr %83, i32 0, i32 12
  %85 = load double, ptr %84, align 8, !tbaa !107
  %86 = load ptr, ptr %5, align 8, !tbaa !17
  %87 = getelementptr inbounds nuw %struct.ARKodeLSRKStepMemRec, ptr %86, i32 0, i32 12
  %88 = load double, ptr %87, align 8, !tbaa !107
  %89 = load ptr, ptr %5, align 8, !tbaa !17
  %90 = getelementptr inbounds nuw %struct.ARKodeLSRKStepMemRec, ptr %89, i32 0, i32 13
  %91 = load double, ptr %90, align 8, !tbaa !108
  %92 = load ptr, ptr %5, align 8, !tbaa !17
  %93 = getelementptr inbounds nuw %struct.ARKodeLSRKStepMemRec, ptr %92, i32 0, i32 13
  %94 = load double, ptr %93, align 8, !tbaa !108
  %95 = fmul double %91, %94
  %96 = call double @llvm.fmuladd.f64(double %85, double %88, double %95)
  %97 = fcmp ole double %96, 0.000000e+00
  br i1 %97, label %98, label %99

98:                                               ; preds = %68
  br label %115

99:                                               ; preds = %68
  %100 = load ptr, ptr %5, align 8, !tbaa !17
  %101 = getelementptr inbounds nuw %struct.ARKodeLSRKStepMemRec, ptr %100, i32 0, i32 12
  %102 = load double, ptr %101, align 8, !tbaa !107
  %103 = load ptr, ptr %5, align 8, !tbaa !17
  %104 = getelementptr inbounds nuw %struct.ARKodeLSRKStepMemRec, ptr %103, i32 0, i32 12
  %105 = load double, ptr %104, align 8, !tbaa !107
  %106 = load ptr, ptr %5, align 8, !tbaa !17
  %107 = getelementptr inbounds nuw %struct.ARKodeLSRKStepMemRec, ptr %106, i32 0, i32 13
  %108 = load double, ptr %107, align 8, !tbaa !108
  %109 = load ptr, ptr %5, align 8, !tbaa !17
  %110 = getelementptr inbounds nuw %struct.ARKodeLSRKStepMemRec, ptr %109, i32 0, i32 13
  %111 = load double, ptr %110, align 8, !tbaa !108
  %112 = fmul double %108, %111
  %113 = call double @llvm.fmuladd.f64(double %102, double %105, double %112)
  %114 = call double @sqrt(double noundef %113) #6, !tbaa !15
  br label %115

115:                                              ; preds = %99, %98
  %116 = phi double [ 0.000000e+00, %98 ], [ %114, %99 ]
  %117 = load ptr, ptr %5, align 8, !tbaa !17
  %118 = getelementptr inbounds nuw %struct.ARKodeLSRKStepMemRec, ptr %117, i32 0, i32 14
  store double %116, ptr %118, align 8, !tbaa !82
  %119 = load ptr, ptr %5, align 8, !tbaa !17
  %120 = getelementptr inbounds nuw %struct.ARKodeLSRKStepMemRec, ptr %119, i32 0, i32 21
  store i32 1, ptr %120, align 8, !tbaa !56
  %121 = load ptr, ptr %4, align 8, !tbaa !13
  %122 = getelementptr inbounds nuw %struct.ARKodeMemRec, ptr %121, i32 0, i32 108
  %123 = load i64, ptr %122, align 8, !tbaa !92
  %124 = load ptr, ptr %5, align 8, !tbaa !17
  %125 = getelementptr inbounds nuw %struct.ARKodeLSRKStepMemRec, ptr %124, i32 0, i32 10
  store i64 %123, ptr %125, align 8, !tbaa !46
  %126 = load ptr, ptr %5, align 8, !tbaa !17
  %127 = getelementptr inbounds nuw %struct.ARKodeLSRKStepMemRec, ptr %126, i32 0, i32 14
  %128 = load double, ptr %127, align 8, !tbaa !82
  %129 = load ptr, ptr %5, align 8, !tbaa !17
  %130 = getelementptr inbounds nuw %struct.ARKodeLSRKStepMemRec, ptr %129, i32 0, i32 15
  %131 = load double, ptr %130, align 8, !tbaa !53
  %132 = fcmp ogt double %128, %131
  br i1 %132, label %133, label %137

133:                                              ; preds = %115
  %134 = load ptr, ptr %5, align 8, !tbaa !17
  %135 = getelementptr inbounds nuw %struct.ARKodeLSRKStepMemRec, ptr %134, i32 0, i32 14
  %136 = load double, ptr %135, align 8, !tbaa !82
  br label %141

137:                                              ; preds = %115
  %138 = load ptr, ptr %5, align 8, !tbaa !17
  %139 = getelementptr inbounds nuw %struct.ARKodeLSRKStepMemRec, ptr %138, i32 0, i32 15
  %140 = load double, ptr %139, align 8, !tbaa !53
  br label %141

141:                                              ; preds = %137, %133
  %142 = phi double [ %136, %133 ], [ %140, %137 ]
  %143 = load ptr, ptr %5, align 8, !tbaa !17
  %144 = getelementptr inbounds nuw %struct.ARKodeLSRKStepMemRec, ptr %143, i32 0, i32 15
  store double %142, ptr %144, align 8, !tbaa !53
  %145 = load ptr, ptr %5, align 8, !tbaa !17
  %146 = getelementptr inbounds nuw %struct.ARKodeLSRKStepMemRec, ptr %145, i32 0, i32 14
  %147 = load double, ptr %146, align 8, !tbaa !82
  %148 = load ptr, ptr %5, align 8, !tbaa !17
  %149 = getelementptr inbounds nuw %struct.ARKodeLSRKStepMemRec, ptr %148, i32 0, i32 16
  %150 = load double, ptr %149, align 8, !tbaa !54
  %151 = fcmp olt double %147, %150
  br i1 %151, label %157, label %152

152:                                              ; preds = %141
  %153 = load ptr, ptr %4, align 8, !tbaa !13
  %154 = getelementptr inbounds nuw %struct.ARKodeMemRec, ptr %153, i32 0, i32 108
  %155 = load i64, ptr %154, align 8, !tbaa !92
  %156 = icmp eq i64 %155, 0
  br i1 %156, label %157, label %163

157:                                              ; preds = %152, %141
  %158 = load ptr, ptr %5, align 8, !tbaa !17
  %159 = getelementptr inbounds nuw %struct.ARKodeLSRKStepMemRec, ptr %158, i32 0, i32 14
  %160 = load double, ptr %159, align 8, !tbaa !82
  %161 = load ptr, ptr %5, align 8, !tbaa !17
  %162 = getelementptr inbounds nuw %struct.ARKodeLSRKStepMemRec, ptr %161, i32 0, i32 16
  store double %160, ptr %162, align 8, !tbaa !54
  br label %163

163:                                              ; preds = %157, %152
  %164 = load ptr, ptr %5, align 8, !tbaa !17
  %165 = getelementptr inbounds nuw %struct.ARKodeLSRKStepMemRec, ptr %164, i32 0, i32 19
  store i32 0, ptr %165, align 8, !tbaa !55
  %166 = load i32, ptr %6, align 4, !tbaa !15
  store i32 %166, ptr %3, align 4
  store i32 1, ptr %7, align 4
  br label %167

167:                                              ; preds = %163, %66, %54, %43
  call void @llvm.lifetime.end.p0(i64 4, ptr %6) #6
  %168 = load i32, ptr %3, align 4
  ret i32 %168
}