; Function Attrs: nounwind uwtable
define range(i32 -49, 1) i32 @lsrkStep_ComputeNewDomEig(ptr noundef %0, ptr noundef %1) local_unnamed_addr #0 {
  %3 = getelementptr inbounds nuw i8, ptr %1, i64 8
  %4 = load ptr, ptr %3, align 8, !tbaa !50
  %5 = getelementptr inbounds nuw i8, ptr %0, i64 896
  %6 = load double, ptr %5, align 8, !tbaa !81
  %7 = getelementptr inbounds nuw i8, ptr %0, i64 584
  %8 = load ptr, ptr %7, align 8, !tbaa !87
  %9 = getelementptr inbounds nuw i8, ptr %0, i64 600
  %10 = load ptr, ptr %9, align 8, !tbaa !65
  %11 = getelementptr inbounds nuw i8, ptr %1, i64 72
  %12 = getelementptr inbounds nuw i8, ptr %1, i64 80
  %13 = getelementptr inbounds nuw i8, ptr %0, i64 16
  %14 = load ptr, ptr %13, align 8, !tbaa !63
  %15 = getelementptr inbounds nuw i8, ptr %0, i64 616
  %16 = load ptr, ptr %15, align 8, !tbaa !83
  %17 = getelementptr inbounds nuw i8, ptr %0, i64 624
  %18 = load ptr, ptr %17, align 8, !tbaa !84
  %19 = getelementptr inbounds nuw i8, ptr %0, i64 632
  %20 = load ptr, ptr %19, align 8, !tbaa !102
  %21 = tail call i32 %4(double noundef %6, ptr noundef %8, ptr noundef %10, ptr noundef nonnull %11, ptr noundef nonnull %12, ptr noundef %14, ptr noundef %16, ptr noundef %18, ptr noundef %20) #13
  %22 = getelementptr inbounds nuw i8, ptr %1, i64 40
  %23 = load i64, ptr %22, align 8, !tbaa !94
  %24 = add nsw i64 %23, 1
  store i64 %24, ptr %22, align 8, !tbaa !94
  %.not = icmp eq i32 %21, 0
  br i1 %.not, label %26, label %25

25:                                               ; preds = %2
  tail call void (ptr, i32, i32, ptr, ptr, ptr, ...) @arkProcessError(ptr noundef nonnull %0, i32 noundef -49, i32 noundef 2229, ptr noundef nonnull @__func__.lsrkStep_ComputeNewDomEig, ptr noundef nonnull @.str, ptr noundef nonnull @.str.40) #13
  br label %61

26:                                               ; preds = %2
  %27 = load double, ptr %11, align 8, !tbaa !95
  %28 = getelementptr inbounds nuw i8, ptr %0, i64 704
  %29 = load double, ptr %28, align 8, !tbaa !68
  %30 = fmul double %27, %29
  %31 = fcmp ogt double %30, 0.000000e+00
  br i1 %31, label %32, label %33

32:                                               ; preds = %26
  tail call void (ptr, i32, i32, ptr, ptr, ptr, ...) @arkProcessError(ptr noundef null, i32 noundef -49, i32 noundef 2236, ptr noundef nonnull @__func__.lsrkStep_ComputeNewDomEig, ptr noundef nonnull @.str, ptr noundef nonnull @.str.41) #13
  br label %61

33:                                               ; preds = %26
  %34 = fcmp une double %27, 0.000000e+00
  %.pre = load double, ptr %12, align 8, !tbaa !96
  %35 = fcmp ueq double %.pre, 0.000000e+00
  %or.cond49 = select i1 %34, i1 true, i1 %35
  br i1 %or.cond49, label %37, label %36

36:                                               ; preds = %33
  tail call void (ptr, i32, i32, ptr, ptr, ptr, ...) @arkProcessError(ptr noundef null, i32 noundef -49, i32 noundef 2243, ptr noundef nonnull @__func__.lsrkStep_ComputeNewDomEig, ptr noundef nonnull @.str, ptr noundef nonnull @.str.42) #13
  br label %61

37:                                               ; preds = %33
  %38 = getelementptr inbounds nuw i8, ptr %1, i64 112
  %39 = load double, ptr %38, align 8, !tbaa !99
  %40 = fmul double %27, %39
  store double %40, ptr %11, align 8, !tbaa !95
  %41 = fmul double %39, %.pre
  store double %41, ptr %12, align 8, !tbaa !96
  %42 = fmul double %41, %41
  %43 = tail call double @llvm.fmuladd.f64(double %40, double %40, double %42)
  %44 = fcmp ugt double %43, 0.000000e+00
  %sqrt = tail call double @llvm.sqrt.f64(double %43)
  %45 = select i1 %44, double %sqrt, double 0.000000e+00
  %46 = getelementptr inbounds nuw i8, ptr %1, i64 88
  store double %45, ptr %46, align 8, !tbaa !69
  %47 = getelementptr inbounds nuw i8, ptr %1, i64 136
  store i32 1, ptr %47, align 8, !tbaa !55
  %48 = getelementptr inbounds nuw i8, ptr %0, i64 816
  %49 = load i64, ptr %48, align 8, !tbaa !80
  %50 = getelementptr inbounds nuw i8, ptr %1, i64 56
  store i64 %49, ptr %50, align 8, !tbaa !52
  %51 = getelementptr inbounds nuw i8, ptr %1, i64 96
  %52 = load double, ptr %51, align 8, !tbaa !97
  %53 = fcmp ogt double %45, %52
  %. = select i1 %53, double %45, double %52
  store double %., ptr %51, align 8, !tbaa !97
  %54 = getelementptr inbounds nuw i8, ptr %1, i64 104
  %55 = load double, ptr %54, align 8, !tbaa !98
  %56 = fcmp olt double %45, %55
  %57 = icmp eq i64 %49, 0
  %or.cond = select i1 %56, i1 true, i1 %57
  br i1 %or.cond, label %58, label %59

58:                                               ; preds = %37
  store double %45, ptr %54, align 8, !tbaa !98
  br label %59

59:                                               ; preds = %37, %58
  %60 = getelementptr inbounds nuw i8, ptr %1, i64 128
  store i32 0, ptr %60, align 8, !tbaa !54
  br label %61

61:                                               ; preds = %59, %36, %32, %25
  %.0 = phi i32 [ -49, %25 ], [ -49, %32 ], [ -49, %36 ], [ 0, %59 ]
  ret i32 %.0
}